target datalayout = "e-m:e-p270:32:32-p271:32:32-p272:64:64-i64:64-i128:128-f80:128-n8:16:32:64-S128"
target triple = "x86_64-unknown-linux-gnu"

; Function Attrs: mustprogress nounwind uwtable
define internal noundef i64 @_ZN6hermes2vmL8floorModEll(i64 noundef %x, i64 noundef %y) #0 {
entry:
  %x.addr = alloca i64, align 8
  %y.addr = alloca i64, align 8
  %quot = alloca i64, align 8
  %rem = alloca i64, align 8
  store i64 %x, ptr %x.addr, align 8
  store i64 %y, ptr %y.addr, align 8
  %0 = load i64, ptr %x.addr, align 8
  %1 = load i64, ptr %y.addr, align 8
  call void @_ZN6hermes2vmL11floorDivModEllPlS1_(i64 noundef %0, i64 noundef %1, ptr noundef %quot, ptr noundef %rem)
  %2 = load i64, ptr %rem, align 8
  ret i64 %2
}

; Function Attrs: mustprogress nounwind uwtable
define internal noundef zeroext i1 @_ZN6hermes2vmL10isLeapYearEi(i32 noundef %y) #0 {
entry:
  %retval = alloca i1, align 1
  %y.addr = alloca i32, align 4
  store i32 %y, ptr %y.addr, align 4
  %0 = load i32, ptr %y.addr, align 4
  %rem = srem i32 %0, 4
  %cmp = icmp ne i32 %rem, 0
  br i1 %cmp, label %if.then, label %if.end

if.then:                                          ; preds = %entry
  store i1 false, ptr %retval, align 1
  br label %return

if.end:                                           ; preds = %entry
  %1 = load i32, ptr %y.addr, align 4
  %rem1 = srem i32 %1, 100
  %cmp2 = icmp ne i32 %rem1, 0
  br i1 %cmp2, label %if.then3, label %if.end4

if.then3:                                         ; preds = %if.end
  store i1 true, ptr %retval, align 1
  br label %return

if.end4:                                          ; preds = %if.end
  %2 = load i32, ptr %y.addr, align 4
  %rem5 = srem i32 %2, 400
  %cmp6 = icmp ne i32 %rem5, 0
  br i1 %cmp6, label %if.then7, label %if.end8

if.then7:                                         ; preds = %if.end4
  store i1 false, ptr %retval, align 1
  br label %return

if.end8:                                          ; preds = %if.end4
  store i1 true, ptr %retval, align 1
  br label %return

return:                                           ; preds = %if.end8, %if.then7, %if.then3, %if.then
  %3 = load i1, ptr %retval, align 1
  ret i1 %3
}

; Function Attrs: mustprogress nounwind uwtable
define internal noundef i32 @_ZN6hermes2vmL20weekDayFromEpochDaysEi(i32 noundef %epochDays) #0 {
entry:
  %epochDays.addr = alloca i32, align 4
  store i32 %epochDays, ptr %epochDays.addr, align 4
  %0 = load i32, ptr %epochDays.addr, align 4
  %add = add nsw i32 %0, 4
  %conv = sext i32 %add to i64
  %call = call noundef i64 @_ZN6hermes2vmL8floorModEll(i64 noundef %conv, i64 noundef 7)
  %conv1 = trunc i64 %call to i32
  ret i32 %conv1
}

; Function Attrs: mustprogress nounwind uwtable
define internal noundef i32 @_ZN6hermes2vmL25equivalentYearAsEpochDaysEii(i32 noundef %year, i32 noundef %yearAsEpochDays) #0 {
entry:
  %retval = alloca i32, align 4
  %year.addr = alloca i32, align 4
  %yearAsEpochDays.addr = alloca i32, align 4
  %wkDay = alloca i32, align 4
  %eqYear = alloca i32, align 4
  store i32 %year, ptr %year.addr, align 4
  store i32 %yearAsEpochDays, ptr %yearAsEpochDays.addr, align 4
  %0 = load i32, ptr %year.addr, align 4
  %cmp = icmp sge i32 %0, 1970
  br i1 %cmp, label %land.lhs.true, label %if.end

land.lhs.true:                                    ; preds = %entry
  %1 = load i32, ptr %year.addr, align 4
  %cmp1 = icmp sle i32 %1, 2037
  br i1 %cmp1, label %if.then, label %if.end

if.then:                                          ; preds = %land.lhs.true
  %2 = load i32, ptr %yearAsEpochDays.addr, align 4
  store i32 %2, ptr %retval, align 4
  br label %return

if.end:                                           ; preds = %land.lhs.true, %entry
  %3 = load i32, ptr %yearAsEpochDays.addr, align 4
  %call = call noundef i32 @_ZN6hermes2vmL20weekDayFromEpochDaysEi(i32 noundef %3)
  store i32 %call, ptr %wkDay, align 4
  %4 = load i32, ptr %year.addr, align 4
  %call2 = call noundef zeroext i1 @_ZN6hermes2vmL10isLeapYearEi(i32 noundef %4)
  %cond = select i1 %call2, i32 2012, i32 2006
  %5 = load i32, ptr %wkDay, align 4
  %mul = mul nsw i32 %5, 12
  %rem = srem i32 %mul, 28
  %add = add nsw i32 %cond, %rem
  store i32 %add, ptr %eqYear, align 4
  %6 = load i32, ptr %eqYear, align 4
  %sub = sub nsw i32 %6, 2006
  %rem3 = srem i32 %sub, 28
  %add4 = add nsw i32 2006, %rem3
  store i32 %add4, ptr %eqYear, align 4
  %7 = load i32, ptr %eqYear, align 4
  %sub5 = sub nsw i32 %7, 2006
  %idxprom = sext i32 %sub5 to i64
  %arrayidx = getelementptr inbounds [28 x i32], ptr @_ZN6hermes2vmL26epochDaysForYear2006To2033E, i64 0, i64 %idxprom
  %8 = load i32, ptr %arrayidx, align 4
  store i32 %8, ptr %retval, align 4
  br label %return

return:                                           ; preds = %if.end, %if.then
  %9 = load i32, ptr %retval, align 4
  ret i32 %9
}

; Function Attrs: mustprogress nounwind uwtable
define internal void @_ZN6hermes2vmL18decomposeEpochDaysEiPiS1_S1_(i32 noundef %epochDays, ptr noundef %year, ptr noundef %yearAsEpochDays, ptr noundef %dayOfYear) #0 {
entry:
  %epochDays.addr = alloca i32, align 4
  %year.addr = alloca ptr, align 8
  %yearAsEpochDays.addr = alloca ptr, align 8
  %dayOfYear.addr = alloca ptr, align 8
  %countOf400Years = alloca i32, align 4
  %countOf100Years = alloca i32, align 4
  %countOf4Years = alloca i32, align 4
  %countOf1Year = alloca i32, align 4
  store i32 %epochDays, ptr %epochDays.addr, align 4
  store ptr %year, ptr %year.addr, align 8
  store ptr %yearAsEpochDays, ptr %yearAsEpochDays.addr, align 8
  store ptr %dayOfYear, ptr %dayOfYear.addr, align 8
  %0 = load ptr, ptr %year.addr, align 8
  store i32 -274000, ptr %0, align 4
  %1 = load ptr, ptr %yearAsEpochDays.addr, align 8
  store i32 -100795972, ptr %1, align 4
  %2 = load i32, ptr %epochDays.addr, align 4
  %add = add nsw i32 %2, 100795972
  %3 = load ptr, ptr %dayOfYear.addr, align 8
  store i32 %add, ptr %3, align 4
  %4 = load ptr, ptr %dayOfYear.addr, align 8
  %5 = load i32, ptr %4, align 4
  %div = sdiv i32 %5, 146097
  store i32 %div, ptr %countOf400Years, align 4
  %6 = load i32, ptr %countOf400Years, align 4
  %mul = mul nsw i32 %6, 400
  %7 = load ptr, ptr %year.addr, align 8
  %8 = load i32, ptr %7, align 4
  %add1 = add nsw i32 %8, %mul
  store i32 %add1, ptr %7, align 4
  %9 = load i32, ptr %countOf400Years, align 4
  %mul2 = mul nsw i32 %9, 146097
  %10 = load ptr, ptr %yearAsEpochDays.addr, align 8
  %11 = load i32, ptr %10, align 4
  %add3 = add nsw i32 %11, %mul2
  store i32 %add3, ptr %10, align 4
  %12 = load i32, ptr %countOf400Years, align 4
  %mul4 = mul nsw i32 %12, 146097
  %13 = load ptr, ptr %dayOfYear.addr, align 8
  %14 = load i32, ptr %13, align 4
  %sub = sub nsw i32 %14, %mul4
  store i32 %sub, ptr %13, align 4
  %15 = load ptr, ptr %dayOfYear.addr, align 8
  %16 = load i32, ptr %15, align 4
  %div5 = sdiv i32 %16, 36524
  store i32 %div5, ptr %countOf100Years, align 4
  %17 = load i32, ptr %countOf100Years, align 4
  %mul6 = mul nsw i32 %17, 100
  %18 = load ptr, ptr %year.addr, align 8
  %19 = load i32, ptr %18, align 4
  %add7 = add nsw i32 %19, %mul6
  store i32 %add7, ptr %18, align 4
  %20 = load i32, ptr %countOf100Years, align 4
  %mul8 = mul nsw i32 %20, 36524
  %21 = load ptr, ptr %yearAsEpochDays.addr, align 8
  %22 = load i32, ptr %21, align 4
  %add9 = add nsw i32 %22, %mul8
  store i32 %add9, ptr %21, align 4
  %23 = load i32, ptr %countOf100Years, align 4
  %mul10 = mul nsw i32 %23, 36524
  %24 = load ptr, ptr %dayOfYear.addr, align 8
  %25 = load i32, ptr %24, align 4
  %sub11 = sub nsw i32 %25, %mul10
  store i32 %sub11, ptr %24, align 4
  %26 = load ptr, ptr %dayOfYear.addr, align 8
  %27 = load i32, ptr %26, align 4
  %div12 = sdiv i32 %27, 1461
  store i32 %div12, ptr %countOf4Years, align 4
  %28 = load i32, ptr %countOf4Years, align 4
  %mul13 = mul nsw i32 %28, 4
  %29 = load ptr, ptr %year.addr, align 8
  %30 = load i32, ptr %29, align 4
  %add14 = add nsw i32 %30, %mul13
  store i32 %add14, ptr %29, align 4
  %31 = load i32, ptr %countOf4Years, align 4
  %mul15 = mul nsw i32 %31, 1461
  %32 = load ptr, ptr %yearAsEpochDays.addr, align 8
  %33 = load i32, ptr %32, align 4
  %add16 = add nsw i32 %33, %mul15
  store i32 %add16, ptr %32, align 4
  %34 = load i32, ptr %countOf4Years, align 4
  %mul17 = mul nsw i32 %34, 1461
  %35 = load ptr, ptr %dayOfYear.addr, align 8
  %36 = load i32, ptr %35, align 4
  %sub18 = sub nsw i32 %36, %mul17
  store i32 %sub18, ptr %35, align 4
  %37 = load ptr, ptr %dayOfYear.addr, align 8
  %38 = load i32, ptr %37, align 4
  %div19 = sdiv i32 %38, 365
  store i32 %div19, ptr %countOf1Year, align 4
  %39 = load i32, ptr %countOf1Year, align 4
  %mul20 = mul nsw i32 %39, 1
  %40 = load ptr, ptr %year.addr, align 8
  %41 = load i32, ptr %40, align 4
  %add21 = add nsw i32 %41, %mul20
  store i32 %add21, ptr %40, align 4
  %42 = load i32, ptr %countOf1Year, align 4
  %mul22 = mul nsw i32 %42, 365
  %43 = load ptr, ptr %yearAsEpochDays.addr, align 8
  %44 = load i32, ptr %43, align 4
  %add23 = add nsw i32 %44, %mul22
  store i32 %add23, ptr %43, align 4
  %45 = load i32, ptr %countOf1Year, align 4
  %mul24 = mul nsw i32 %45, 365
  %46 = load ptr, ptr %dayOfYear.addr, align 8
  %47 = load i32, ptr %46, align 4
  %sub25 = sub nsw i32 %47, %mul24
  store i32 %sub25, ptr %46, align 4
  ret void
}

; Function Attrs: mustprogress nounwind uwtable
define internal void @_ZN6hermes2vmL11floorDivModEllPlS1_(i64 noundef %x, i64 noundef %y, ptr noundef %quot, ptr noundef %rem) #0 {
entry:
  %x.addr = alloca i64, align 8
  %y.addr = alloca i64, align 8
  %quot.addr = alloca ptr, align 8
  %rem.addr = alloca ptr, align 8
  %q = alloca i64, align 8
  store i64 %x, ptr %x.addr, align 8
  store i64 %y, ptr %y.addr, align 8
  store ptr %quot, ptr %quot.addr, align 8
  store ptr %rem, ptr %rem.addr, align 8
  %0 = load i64, ptr %x.addr, align 8
  %1 = load i64, ptr %y.addr, align 8
  %div = sdiv i64 %0, %1
  store i64 %div, ptr %q, align 8
  %2 = load i64, ptr %x.addr, align 8
  %3 = load i64, ptr %y.addr, align 8
  %xor = xor i64 %2, %3
  %cmp = icmp slt i64 %xor, 0
  br i1 %cmp, label %land.lhs.true, label %if.end

land.lhs.true:                                    ; preds = %entry
  %4 = load i64, ptr %q, align 8
  %5 = load i64, ptr %y.addr, align 8
  %mul = mul nsw i64 %4, %5
  %6 = load i64, ptr %x.addr, align 8
  %cmp1 = icmp ne i64 %mul, %6
  br i1 %cmp1, label %if.then, label %if.end

if.then:                                          ; preds = %land.lhs.true
  %7 = load i64, ptr %q, align 8
  %dec = add nsw i64 %7, -1
  store i64 %dec, ptr %q, align 8
  br label %if.end

if.end:                                           ; preds = %if.then, %land.lhs.true, %entry
  %8 = load i64, ptr %q, align 8
  %9 = load ptr, ptr %quot.addr, align 8
  store i64 %8, ptr %9, align 8
  %10 = load i64, ptr %x.addr, align 8
  %11 = load i64, ptr %y.addr, align 8
  %12 = load i64, ptr %q, align 8
  %mul2 = mul nsw i64 %11, %12
  %sub = sub nsw i64 %10, %mul2
  %13 = load ptr, ptr %rem.addr, align 8
  store i64 %sub, ptr %13, align 8
  ret void
}

; Function Attrs: mustprogress nounwind uwtable
define hidden noundef i32 @_ZN6hermes2vm6detail14equivalentTimeEl(i64 noundef %epochSecs) #0 {
entry:
  %epochSecs.addr = alloca i64, align 8
  %epochDays = alloca i64, align 8
  %secsOfDay = alloca i64, align 8
  %year = alloca i32, align 4
  %yearAsEpochDays = alloca i32, align 4
  %dayOfYear = alloca i32, align 4
  %eqYearAsEpochDays = alloca i32, align 4
  store i64 %epochSecs, ptr %epochSecs.addr, align 8
  %0 = load i64, ptr %epochSecs.addr, align 8
  call void @_ZN6hermes2vmL11floorDivModEllPlS1_(i64 noundef %0, i64 noundef 86400, ptr noundef %epochDays, ptr noundef %secsOfDay)
  %1 = load i64, ptr %epochDays, align 8
  %conv = trunc i64 %1 to i32
  call void @_ZN6hermes2vmL18decomposeEpochDaysEiPiS1_S1_(i32 noundef %conv, ptr noundef %year, ptr noundef %yearAsEpochDays, ptr noundef %dayOfYear)
  %2 = load i32, ptr %year, align 4
  %3 = load i32, ptr %yearAsEpochDays, align 4
  %call = call noundef i32 @_ZN6hermes2vmL25equivalentYearAsEpochDaysEii(i32 noundef %2, i32 noundef %3)
  store i32 %call, ptr %eqYearAsEpochDays, align 4
  %4 = load i32, ptr %eqYearAsEpochDays, align 4
  %5 = load i32, ptr %dayOfYear, align 4
  %add = add nsw i32 %4, %5
  %mul = mul nsw i32 %add, 86400
  %conv1 = sext i32 %mul to i64
  %6 = load i64, ptr %secsOfDay, align 8
  %add2 = add nsw i64 %conv1, %6
  %conv3 = trunc i64 %add2 to i32
  ret i32 %conv3
}