; Function Attrs: mustprogress nofree norecurse nosync nounwind willreturn memory(none) uwtable
define hidden noundef i32 @_ZN6hermes2vm6detail14equivalentTimeEl(i64 noundef %epochSecs) local_unnamed_addr #2 {
entry:
  %div.i = sdiv i64 %epochSecs, 86400
  %cmp.i = icmp slt i64 %epochSecs, 0
  %mul.i = mul nsw i64 %div.i, 86400
  %cmp1.not.i = icmp ne i64 %mul.i, %epochSecs
  %or.cond.not.i = select i1 %cmp.i, i1 %cmp1.not.i, i1 false
  %dec.i = sext i1 %or.cond.not.i to i64
  %q.0.i = add nsw i64 %div.i, %dec.i
  %conv = trunc i64 %q.0.i to i32
  %add.i = add nsw i32 %conv, 100795972
  %div.i1 = sdiv i32 %add.i, 146097
  %mul.i2 = mul nsw i32 %div.i1, 400
  %add1.i = add nsw i32 %mul.i2, -274000
  %mul2.i3 = mul nsw i32 %div.i1, 146097
  %add3.i = add nsw i32 %mul2.i3, -100795972
  %sub.i4.recomposed = srem i32 %add.i, 146097
  %div5.i = sdiv i32 %sub.i4.recomposed, 36524
  %mul6.i = mul nsw i32 %div5.i, 100
  %add7.i = add nsw i32 %add1.i, %mul6.i
  %mul8.i = mul nsw i32 %div5.i, 36524
  %add9.i = add nsw i32 %add3.i, %mul8.i
  %sub11.i.recomposed = srem i32 %sub.i4.recomposed, 36524
  %div12.i = sdiv i32 %sub11.i.recomposed, 1461
  %mul13.i = shl nsw i32 %div12.i, 2
  %add14.i = add nsw i32 %add7.i, %mul13.i
  %mul15.i = mul nsw i32 %div12.i, 1461
  %add16.i = add nsw i32 %add9.i, %mul15.i
  %sub18.i.recomposed = srem i32 %sub11.i.recomposed, 1461
  %div19.i = sdiv i32 %sub18.i.recomposed, 365
  %sub25.i.recomposed = srem i32 %sub18.i.recomposed, 365
  %add21.i = add nsw i32 %add14.i, %div19.i
  %mul22.i = mul nsw i32 %div19.i, 365
  %add23.i = add nsw i32 %add16.i, %mul22.i
  %0 = add nsw i32 %add21.i, -1970
  %or.cond.i = icmp ult i32 %0, 68
  br i1 %or.cond.i, label %_ZN6hermes2vmL25equivalentYearAsEpochDaysEii.exit, label %if.end.i

if.end.i:                                         ; preds = %entry
  %add.i.i = add nsw i32 %add23.i, 4
  %conv.i.i = sext i32 %add.i.i to i64
  %div.i.i1.i.i = sdiv i32 %add.i.i, 7
  %div.i.i.sext.i.i = sext i32 %div.i.i1.i.i to i64
  %cmp.i.i.i.i = icmp slt i32 %add23.i, -4
  %mul.i.i.i.i = mul nsw i64 %div.i.i.sext.i.i, 7
  %cmp1.not.i.i.i.i = icmp ne i64 %mul.i.i.i.i, %conv.i.i
  %or.cond.not.i.i.i.i = select i1 %cmp.i.i.i.i, i1 %cmp1.not.i.i.i.i, i1 false
  %dec.i.i.i.i = sext i1 %or.cond.not.i.i.i.i to i32
  %q.0.i.i.i.i = add nsw i32 %div.i.i1.i.i, %dec.i.i.i.i
  %mul2.i.neg.i.i.i = mul nsw i32 %q.0.i.i.i.i, -7
  %sub.i.i.i.i = add i32 %mul2.i.neg.i.i.i, %add.i.i
  %1 = and i32 %div19.i, 3
  %cmp.not.i.i = icmp eq i32 %1, 0
  br i1 %cmp.not.i.i, label %if.end.i.i, label %_ZN6hermes2vmL10isLeapYearEi.exit.thread6.i

if.end.i.i:                                       ; preds = %if.end.i
  %rem1.i.i = srem i32 %add21.i, 100
  %cmp2.not.i.i = icmp ne i32 %rem1.i.i, 0
  %rem5.i.i = srem i32 %add21.i, 400
  %cmp6.not.i.i = icmp eq i32 %rem5.i.i, 0
  %or.cond9.i = or i1 %cmp2.not.i.i, %cmp6.not.i.i
  %spec.select.i = select i1 %or.cond9.i, i32 2012, i32 2006
  br label %_ZN6hermes2vmL10isLeapYearEi.exit.thread6.i

_ZN6hermes2vmL10isLeapYearEi.exit.thread6.i:      ; preds = %if.end.i.i, %if.end.i
  %2 = phi i32 [ 2006, %if.end.i ], [ %spec.select.i, %if.end.i.i ]
  %mul.i5 = mul nsw i32 %sub.i.i.i.i, 12
  %rem.i = srem i32 %mul.i5, 28
  %add.i6 = add nsw i32 %2, %rem.i
  %3 = trunc i32 %add.i6 to i8
  %rem3.lhs.trunc.i = add nsw i8 %3, 42
  %rem38.i = srem i8 %rem3.lhs.trunc.i, 28
  %idxprom.i = sext i8 %rem38.i to i64
  %arrayidx.i = getelementptr inbounds [28 x i32], ptr @_ZN6hermes2vmL26epochDaysForYear2006To2033E, i64 0, i64 %idxprom.i
  %4 = load i32, ptr %arrayidx.i, align 4
  br label %_ZN6hermes2vmL25equivalentYearAsEpochDaysEii.exit

_ZN6hermes2vmL25equivalentYearAsEpochDaysEii.exit: ; preds = %entry, %_ZN6hermes2vmL10isLeapYearEi.exit.thread6.i
  %retval.0.i = phi i32 [ %4, %_ZN6hermes2vmL10isLeapYearEi.exit.thread6.i ], [ %add23.i, %entry ]
  %mul2.i.neg = mul i64 %q.0.i, 4294880896
  %sub.i = add i64 %mul2.i.neg, %epochSecs
  %add = add nsw i32 %sub25.i.recomposed, %retval.0.i
  %mul = mul nsw i32 %add, 86400
  %5 = trunc i64 %sub.i to i32
  %conv3 = add i32 %mul, %5
  ret i32 %conv3
}